target datalayout = "e-m:e-p270:32:32-p271:32:32-p272:64:64-i64:64-i128:128-f80:128-n8:16:32:64-S128"
target triple = "x86_64-pc-linux-gnu"

%struct.point = type { i32, i32 }
%struct.nitem = type { %struct.dtlink_s_, i32, %struct.point, ptr, ptr, ptr, %struct.box }
%struct.dtlink_s_ = type { ptr, %union.anon }
%union.anon = type { ptr }
%struct.box = type { %struct.point, %struct.point }

; Function Attrs: nounwind uwtable
define internal i32 @distY(ptr noundef %0, ptr noundef %1) #0 {
  %3 = alloca ptr, align 8
  %4 = alloca ptr, align 8
  store ptr %0, ptr %3, align 8, !tbaa !51
  store ptr %1, ptr %4, align 8, !tbaa !51
  %5 = load ptr, ptr %3, align 8, !tbaa !51
  %6 = getelementptr inbounds nuw %struct.box, ptr %5, i32 0, i32 1
  %7 = getelementptr inbounds nuw %struct.point, ptr %6, i32 0, i32 1
  %8 = load i32, ptr %7, align 4, !tbaa !63
  %9 = load ptr, ptr %3, align 8, !tbaa !51
  %10 = getelementptr inbounds nuw %struct.box, ptr %9, i32 0, i32 0
  %11 = getelementptr inbounds nuw %struct.point, ptr %10, i32 0, i32 1
  %12 = load i32, ptr %11, align 4, !tbaa !61
  %13 = sub nsw i32 %8, %12
  %14 = load ptr, ptr %4, align 8, !tbaa !51
  %15 = getelementptr inbounds nuw %struct.box, ptr %14, i32 0, i32 1
  %16 = getelementptr inbounds nuw %struct.point, ptr %15, i32 0, i32 1
  %17 = load i32, ptr %16, align 4, !tbaa !63
  %18 = load ptr, ptr %4, align 8, !tbaa !51
  %19 = getelementptr inbounds nuw %struct.box, ptr %18, i32 0, i32 0
  %20 = getelementptr inbounds nuw %struct.point, ptr %19, i32 0, i32 1
  %21 = load i32, ptr %20, align 4, !tbaa !61
  %22 = sub nsw i32 %17, %21
  %23 = add nsw i32 %13, %22
  %24 = sdiv i32 %23, 2
  ret i32 %24
}

; Function Attrs: nounwind uwtable
define internal i32 @distX(ptr noundef %0, ptr noundef %1) #0 {
  %3 = alloca ptr, align 8
  %4 = alloca ptr, align 8
  store ptr %0, ptr %3, align 8, !tbaa !51
  store ptr %1, ptr %4, align 8, !tbaa !51
  %5 = load ptr, ptr %3, align 8, !tbaa !51
  %6 = getelementptr inbounds nuw %struct.box, ptr %5, i32 0, i32 1
  %7 = getelementptr inbounds nuw %struct.point, ptr %6, i32 0, i32 0
  %8 = load i32, ptr %7, align 4, !tbaa !62
  %9 = load ptr, ptr %3, align 8, !tbaa !51
  %10 = getelementptr inbounds nuw %struct.box, ptr %9, i32 0, i32 0
  %11 = getelementptr inbounds nuw %struct.point, ptr %10, i32 0, i32 0
  %12 = load i32, ptr %11, align 4, !tbaa !60
  %13 = sub nsw i32 %8, %12
  %14 = load ptr, ptr %4, align 8, !tbaa !51
  %15 = getelementptr inbounds nuw %struct.box, ptr %14, i32 0, i32 1
  %16 = getelementptr inbounds nuw %struct.point, ptr %15, i32 0, i32 0
  %17 = load i32, ptr %16, align 4, !tbaa !62
  %18 = load ptr, ptr %4, align 8, !tbaa !51
  %19 = getelementptr inbounds nuw %struct.box, ptr %18, i32 0, i32 0
  %20 = getelementptr inbounds nuw %struct.point, ptr %19, i32 0, i32 0
  %21 = load i32, ptr %20, align 4, !tbaa !60
  %22 = sub nsw i32 %17, %21
  %23 = add nsw i32 %13, %22
  %24 = sdiv i32 %23, 2
  ret i32 %24
}

; Function Attrs: nounwind uwtable
define internal i32 @intersectY0(ptr noundef %0, ptr noundef %1) #0 {
  %3 = alloca i32, align 4
  %4 = alloca ptr, align 8
  %5 = alloca ptr, align 8
  %6 = alloca i32, align 4
  %7 = alloca i32, align 4
  %8 = alloca i32, align 4
  %9 = alloca i32, align 4
  store ptr %0, ptr %4, align 8, !tbaa !10
  store ptr %1, ptr %5, align 8, !tbaa !10
  call void @llvm.lifetime.start.p0(i64 4, ptr %6) #12
  call void @llvm.lifetime.start.p0(i64 4, ptr %7) #12
  call void @llvm.lifetime.start.p0(i64 4, ptr %8) #12
  %10 = load ptr, ptr %4, align 8, !tbaa !10
  %11 = getelementptr inbounds nuw %struct.nitem, ptr %10, i32 0, i32 6
  %12 = getelementptr inbounds nuw %struct.box, ptr %11, i32 0, i32 0
  %13 = getelementptr inbounds nuw %struct.point, ptr %12, i32 0, i32 1
  %14 = load i32, ptr %13, align 4, !tbaa !70
  %15 = load ptr, ptr %5, align 8, !tbaa !10
  %16 = getelementptr inbounds nuw %struct.nitem, ptr %15, i32 0, i32 6
  %17 = getelementptr inbounds nuw %struct.box, ptr %16, i32 0, i32 1
  %18 = getelementptr inbounds nuw %struct.point, ptr %17, i32 0, i32 1
  %19 = load i32, ptr %18, align 4, !tbaa !69
  %20 = icmp sle i32 %14, %19
  br i1 %20, label %21, label %33

21:                                               ; preds = %2
  %22 = load ptr, ptr %5, align 8, !tbaa !10
  %23 = getelementptr inbounds nuw %struct.nitem, ptr %22, i32 0, i32 6
  %24 = getelementptr inbounds nuw %struct.box, ptr %23, i32 0, i32 0
  %25 = getelementptr inbounds nuw %struct.point, ptr %24, i32 0, i32 1
  %26 = load i32, ptr %25, align 4, !tbaa !70
  %27 = load ptr, ptr %4, align 8, !tbaa !10
  %28 = getelementptr inbounds nuw %struct.nitem, ptr %27, i32 0, i32 6
  %29 = getelementptr inbounds nuw %struct.box, ptr %28, i32 0, i32 1
  %30 = getelementptr inbounds nuw %struct.point, ptr %29, i32 0, i32 1
  %31 = load i32, ptr %30, align 4, !tbaa !69
  %32 = icmp sle i32 %26, %31
  br label %33

33:                                               ; preds = %21, %2
  %34 = phi i1 [ false, %2 ], [ %32, %21 ]
  %35 = zext i1 %34 to i32
  store i32 %35, ptr %8, align 4, !tbaa !8
  %36 = load i32, ptr %8, align 4, !tbaa !8
  %37 = icmp eq i32 %36, 0
  br i1 %37, label %38, label %39

38:                                               ; preds = %33
  store i32 0, ptr %3, align 4
  store i32 1, ptr %9, align 4
  br label %114

39:                                               ; preds = %33
  %40 = load ptr, ptr %4, align 8, !tbaa !10
  %41 = getelementptr inbounds nuw %struct.nitem, ptr %40, i32 0, i32 6
  %42 = getelementptr inbounds nuw %struct.box, ptr %41, i32 0, i32 1
  %43 = getelementptr inbounds nuw %struct.point, ptr %42, i32 0, i32 0
  %44 = load i32, ptr %43, align 8, !tbaa !67
  %45 = load ptr, ptr %5, align 8, !tbaa !10
  %46 = getelementptr inbounds nuw %struct.nitem, ptr %45, i32 0, i32 6
  %47 = getelementptr inbounds nuw %struct.box, ptr %46, i32 0, i32 0
  %48 = getelementptr inbounds nuw %struct.point, ptr %47, i32 0, i32 0
  %49 = load i32, ptr %48, align 8, !tbaa !68
  %50 = icmp slt i32 %44, %49
  br i1 %50, label %51, label %52

51:                                               ; preds = %39
  store i32 1, ptr %3, align 4
  store i32 1, ptr %9, align 4
  br label %114

52:                                               ; preds = %39
  %53 = load ptr, ptr %4, align 8, !tbaa !10
  %54 = getelementptr inbounds nuw %struct.nitem, ptr %53, i32 0, i32 6
  %55 = load ptr, ptr %5, align 8, !tbaa !10
  %56 = getelementptr inbounds nuw %struct.nitem, ptr %55, i32 0, i32 6
  %57 = call i32 @distX(ptr noundef %54, ptr noundef %56)
  %58 = load ptr, ptr %5, align 8, !tbaa !10
  %59 = getelementptr inbounds nuw %struct.nitem, ptr %58, i32 0, i32 2
  %60 = getelementptr inbounds nuw %struct.point, ptr %59, i32 0, i32 0
  %61 = load i32, ptr %60, align 4, !tbaa !64
  %62 = load ptr, ptr %4, align 8, !tbaa !10
  %63 = getelementptr inbounds nuw %struct.nitem, ptr %62, i32 0, i32 2
  %64 = getelementptr inbounds nuw %struct.point, ptr %63, i32 0, i32 0
  %65 = load i32, ptr %64, align 4, !tbaa !64
  %66 = sub nsw i32 %61, %65
  %67 = sub nsw i32 %57, %66
  store i32 %67, ptr %6, align 4, !tbaa !8
  %68 = load ptr, ptr %5, align 8, !tbaa !10
  %69 = getelementptr inbounds nuw %struct.nitem, ptr %68, i32 0, i32 2
  %70 = getelementptr inbounds nuw %struct.point, ptr %69, i32 0, i32 1
  %71 = load i32, ptr %70, align 4, !tbaa !65
  %72 = load ptr, ptr %4, align 8, !tbaa !10
  %73 = getelementptr inbounds nuw %struct.nitem, ptr %72, i32 0, i32 2
  %74 = getelementptr inbounds nuw %struct.point, ptr %73, i32 0, i32 1
  %75 = load i32, ptr %74, align 4, !tbaa !65
  %76 = icmp sge i32 %71, %75
  br i1 %76, label %77, label %93

77:                                               ; preds = %52
  %78 = load ptr, ptr %4, align 8, !tbaa !10
  %79 = getelementptr inbounds nuw %struct.nitem, ptr %78, i32 0, i32 6
  %80 = load ptr, ptr %5, align 8, !tbaa !10
  %81 = getelementptr inbounds nuw %struct.nitem, ptr %80, i32 0, i32 6
  %82 = call i32 @distY(ptr noundef %79, ptr noundef %81)
  %83 = load ptr, ptr %5, align 8, !tbaa !10
  %84 = getelementptr inbounds nuw %struct.nitem, ptr %83, i32 0, i32 2
  %85 = getelementptr inbounds nuw %struct.point, ptr %84, i32 0, i32 1
  %86 = load i32, ptr %85, align 4, !tbaa !65
  %87 = load ptr, ptr %4, align 8, !tbaa !10
  %88 = getelementptr inbounds nuw %struct.nitem, ptr %87, i32 0, i32 2
  %89 = getelementptr inbounds nuw %struct.point, ptr %88, i32 0, i32 1
  %90 = load i32, ptr %89, align 4, !tbaa !65
  %91 = sub nsw i32 %86, %90
  %92 = sub nsw i32 %82, %91
  store i32 %92, ptr %7, align 4, !tbaa !8
  br label %109

93:                                               ; preds = %52
  %94 = load ptr, ptr %4, align 8, !tbaa !10
  %95 = getelementptr inbounds nuw %struct.nitem, ptr %94, i32 0, i32 6
  %96 = load ptr, ptr %5, align 8, !tbaa !10
  %97 = getelementptr inbounds nuw %struct.nitem, ptr %96, i32 0, i32 6
  %98 = call i32 @distY(ptr noundef %95, ptr noundef %97)
  %99 = load ptr, ptr %4, align 8, !tbaa !10
  %100 = getelementptr inbounds nuw %struct.nitem, ptr %99, i32 0, i32 2
  %101 = getelementptr inbounds nuw %struct.point, ptr %100, i32 0, i32 1
  %102 = load i32, ptr %101, align 4, !tbaa !65
  %103 = load ptr, ptr %5, align 8, !tbaa !10
  %104 = getelementptr inbounds nuw %struct.nitem, ptr %103, i32 0, i32 2
  %105 = getelementptr inbounds nuw %struct.point, ptr %104, i32 0, i32 1
  %106 = load i32, ptr %105, align 4, !tbaa !65
  %107 = sub nsw i32 %102, %106
  %108 = sub nsw i32 %98, %107
  store i32 %108, ptr %7, align 4, !tbaa !8
  br label %109

109:                                              ; preds = %93, %77
  %110 = load i32, ptr %6, align 4, !tbaa !8
  %111 = load i32, ptr %7, align 4, !tbaa !8
  %112 = icmp sle i32 %110, %111
  %113 = zext i1 %112 to i32
  store i32 %113, ptr %3, align 4
  store i32 1, ptr %9, align 4
  br label %114

114:                                              ; preds = %109, %51, %38
  call void @llvm.lifetime.end.p0(i64 4, ptr %8) #12
  call void @llvm.lifetime.end.p0(i64 4, ptr %7) #12
  call void @llvm.lifetime.end.p0(i64 4, ptr %6) #12
  %115 = load i32, ptr %3, align 4
  ret i32 %115
}