; Function Attrs: mustprogress nofree norecurse nosync nounwind willreturn memory(argmem: read) uwtable
define internal range(i32 0, 2) i32 @intersectY0(ptr noundef readonly captures(none) %0, ptr noundef readonly captures(none) %1) #4 {
  %3 = getelementptr inbounds nuw i8, ptr %0, i64 56
  %4 = getelementptr inbounds nuw i8, ptr %0, i64 60
  %5 = load i32, ptr %4, align 4, !tbaa !49
  %6 = getelementptr inbounds nuw i8, ptr %1, i64 56
  %7 = getelementptr inbounds nuw i8, ptr %1, i64 68
  %8 = load i32, ptr %7, align 4, !tbaa !48
  %.not = icmp sgt i32 %5, %8
  br i1 %.not, label %.critedge, label %9

9:                                                ; preds = %2
  %10 = getelementptr inbounds nuw i8, ptr %1, i64 60
  %11 = load i32, ptr %10, align 4, !tbaa !49
  %12 = getelementptr inbounds nuw i8, ptr %0, i64 68
  %13 = load i32, ptr %12, align 4, !tbaa !48
  %.not24 = icmp sgt i32 %11, %13
  br i1 %.not24, label %.critedge, label %14

14:                                               ; preds = %9
  %15 = getelementptr inbounds nuw i8, ptr %0, i64 64
  %16 = load i32, ptr %15, align 8, !tbaa !46
  %17 = load i32, ptr %6, align 8, !tbaa !47
  %18 = icmp slt i32 %16, %17
  br i1 %18, label %.critedge, label %19

19:                                               ; preds = %14
  %20 = load i32, ptr %3, align 4, !tbaa !68
  %21 = getelementptr inbounds nuw i8, ptr %1, i64 64
  %22 = load i32, ptr %21, align 4, !tbaa !69
  %23 = add i32 %17, %20
  %24 = sub i32 %16, %23
  %25 = add i32 %24, %22
  %26 = sdiv i32 %25, 2
  %27 = getelementptr inbounds nuw i8, ptr %1, i64 20
  %28 = load i32, ptr %27, align 4, !tbaa !34
  %29 = getelementptr inbounds nuw i8, ptr %0, i64 20
  %30 = load i32, ptr %29, align 4, !tbaa !34
  %.neg = sub i32 %30, %28
  %31 = add i32 %.neg, %26
  %32 = getelementptr inbounds nuw i8, ptr %1, i64 24
  %33 = load i32, ptr %32, align 4, !tbaa !40
  %34 = getelementptr inbounds nuw i8, ptr %0, i64 24
  %35 = load i32, ptr %34, align 4, !tbaa !40
  %.not25 = icmp slt i32 %33, %35
  %36 = add i32 %13, %8
  %37 = add i32 %5, %11
  %38 = sub i32 %36, %37
  %39 = sdiv i32 %38, 2
  %.neg26 = sub i32 %33, %35
  %.neg27 = sub i32 %35, %33
  %.neg26.sink = select i1 %.not25, i32 %.neg26, i32 %.neg27
  %40 = add i32 %.neg26.sink, %39
  %41 = icmp sle i32 %31, %40
  %42 = zext i1 %41 to i32
  br label %.critedge

.critedge:                                        ; preds = %2, %14, %9, %19
  %.0 = phi i32 [ %42, %19 ], [ 0, %9 ], [ 1, %14 ], [ 0, %2 ]
  ret i32 %.0
}